target datalayout = "e-m:e-p270:32:32-p271:32:32-p272:64:64-i64:64-i128:128-f80:128-n8:16:32:64-S128"
target triple = "x86_64-pc-linux-gnu"

%struct._object = type { %union.anon, ptr }
%union.anon = type { i64 }
%struct.Py_buffer = type { ptr, ptr, i64, i64, i32, i32, ptr, ptr, ptr, ptr, ptr }
%struct._typeobject = type { %struct.PyVarObject, ptr, i64, i64, ptr, i64, ptr, ptr, ptr, ptr, ptr, ptr, ptr, ptr, ptr, ptr, ptr, ptr, ptr, i64, ptr, ptr, ptr, ptr, i64, ptr, ptr, ptr, ptr, ptr, ptr, ptr, ptr, ptr, i64, ptr, ptr, ptr, ptr, ptr, ptr, ptr, ptr, ptr, ptr, ptr, i32, ptr, ptr, i8, i16 }
%struct.PyVarObject = type { %struct._object, i64 }
%struct.PyASCIIObject = type { %struct._object, i64, i64, %struct.anon.0 }
%struct.anon.0 = type { i16, i16 }
%struct.PyCompactUnicodeObject = type { %struct.PyASCIIObject, i64, ptr }
%struct.PyUnicodeObject = type { %struct.PyCompactUnicodeObject, %union.anon.1 }
%union.anon.1 = type { ptr }

@PyExc_TypeError = external global ptr, align 8
@PyExc_BufferError = external global ptr, align 8
@.str.47 = private unnamed_addr constant [32 x i8] c"Buffer must be single dimension\00", align 1
@.str.61 = private unnamed_addr constant [15 x i8] c"compare_digest\00", align 1
@.str.113 = private unnamed_addr constant [61 x i8] c"comparing strings with non-ASCII characters is not supported\00", align 1
@.str.114 = private unnamed_addr constant [76 x i8] c"unsupported operand types(s) or combination of types: '%.100s' and '%.100s'\00", align 1

; Function Attrs: inlinehint nounwind uwtable
define internal ptr @_PyUnicode_NONCOMPACT_DATA(ptr noundef %0) #4 {
  %2 = alloca ptr, align 8
  %3 = alloca ptr, align 8
  store ptr %0, ptr %2, align 8, !tbaa !14
  call void @llvm.lifetime.start.p0(i64 8, ptr %3) #9
  %4 = load ptr, ptr %2, align 8, !tbaa !14
  %5 = getelementptr inbounds nuw %struct.PyUnicodeObject, ptr %4, i32 0, i32 1
  %6 = load ptr, ptr %5, align 8, !tbaa !28
  store ptr %6, ptr %3, align 8, !tbaa !3
  %7 = load ptr, ptr %3, align 8, !tbaa !3
  call void @llvm.lifetime.end.p0(i64 8, ptr %3) #9
  ret ptr %7
}

; Function Attrs: inlinehint nounwind uwtable
define internal ptr @_PyUnicode_COMPACT_DATA(ptr noundef %0) #4 {
  %2 = alloca ptr, align 8
  %3 = alloca ptr, align 8
  store ptr %0, ptr %3, align 8, !tbaa !14
  %4 = load ptr, ptr %3, align 8, !tbaa !14
  %5 = call i32 @PyUnicode_IS_ASCII(ptr noundef %4)
  %6 = icmp ne i32 %5, 0
  br i1 %6, label %7, label %10

7:                                                ; preds = %1
  %8 = load ptr, ptr %3, align 8, !tbaa !14
  %9 = getelementptr %struct.PyASCIIObject, ptr %8, i64 1
  store ptr %9, ptr %2, align 8
  br label %13

10:                                               ; preds = %1
  %11 = load ptr, ptr %3, align 8, !tbaa !14
  %12 = getelementptr %struct.PyCompactUnicodeObject, ptr %11, i64 1
  store ptr %12, ptr %2, align 8
  br label %13

13:                                               ; preds = %10, %7
  %14 = load ptr, ptr %2, align 8
  ret ptr %14
}

; Function Attrs: inlinehint nounwind uwtable
define internal i32 @PyUnicode_IS_COMPACT(ptr noundef %0) #4 {
  %2 = alloca ptr, align 8
  store ptr %0, ptr %2, align 8, !tbaa !14
  %3 = load ptr, ptr %2, align 8, !tbaa !14
  %4 = getelementptr inbounds nuw %struct.PyASCIIObject, ptr %3, i32 0, i32 3
  %5 = getelementptr inbounds nuw %struct.anon.0, ptr %4, i32 0, i32 1
  %6 = load i16, ptr %5, align 2
  %7 = lshr i16 %6, 3
  %8 = and i16 %7, 1
  %9 = zext i16 %8 to i32
  ret i32 %9
}

; Function Attrs: nounwind uwtable
define internal i32 @_tscmp(ptr noundef %0, ptr noundef %1, i64 noundef %2, i64 noundef %3) #0 {
  %5 = alloca ptr, align 8
  %6 = alloca ptr, align 8
  %7 = alloca i64, align 8
  %8 = alloca i64, align 8
  %9 = alloca i64, align 8
  %10 = alloca ptr, align 8
  %11 = alloca ptr, align 8
  %12 = alloca i32, align 4
  store ptr %0, ptr %5, align 8, !tbaa !21
  store ptr %1, ptr %6, align 8, !tbaa !21
  store i64 %2, ptr %7, align 8, !tbaa !32
  store i64 %3, ptr %8, align 8, !tbaa !32
  call void @llvm.lifetime.start.p0(i64 8, ptr %9) #9
  %13 = load i64, ptr %8, align 8, !tbaa !32
  store i64 %13, ptr %9, align 8, !tbaa !32
  call void @llvm.lifetime.start.p0(i64 8, ptr %10) #9
  %14 = load ptr, ptr %5, align 8, !tbaa !21
  store ptr %14, ptr %10, align 8, !tbaa !3
  call void @llvm.lifetime.start.p0(i64 8, ptr %11) #9
  %15 = load ptr, ptr %6, align 8, !tbaa !21
  store ptr %15, ptr %11, align 8, !tbaa !3
  call void @llvm.lifetime.start.p0(i64 4, ptr %12) #9
  store i32 0, ptr %12, align 4, !tbaa !19
  %16 = load i64, ptr %7, align 8, !tbaa !32
  %17 = load i64, ptr %9, align 8, !tbaa !32
  %18 = icmp ne i64 %16, %17
  br i1 %18, label %19, label %21

19:                                               ; preds = %4
  %20 = load ptr, ptr %6, align 8, !tbaa !21
  store ptr %20, ptr %10, align 8, !tbaa !3
  store i32 1, ptr %12, align 4, !tbaa !19
  br label %21

21:                                               ; preds = %19, %4
  %22 = load ptr, ptr %10, align 8, !tbaa !3
  %23 = load ptr, ptr %11, align 8, !tbaa !3
  %24 = load i64, ptr %9, align 8, !tbaa !32
  %25 = call i32 @CRYPTO_memcmp(ptr noundef %22, ptr noundef %23, i64 noundef %24)
  %26 = load i32, ptr %12, align 4, !tbaa !19
  %27 = or i32 %26, %25
  store i32 %27, ptr %12, align 4, !tbaa !19
  %28 = load i32, ptr %12, align 4, !tbaa !19
  %29 = icmp eq i32 %28, 0
  %30 = zext i1 %29 to i32
  call void @llvm.lifetime.end.p0(i64 4, ptr %12) #9
  call void @llvm.lifetime.end.p0(i64 8, ptr %11) #9
  call void @llvm.lifetime.end.p0(i64 8, ptr %10) #9
  call void @llvm.lifetime.end.p0(i64 8, ptr %9) #9
  ret i32 %30
}

; Function Attrs: inlinehint nounwind uwtable
define internal i64 @PyUnicode_GET_LENGTH(ptr noundef %0) #4 {
  %2 = alloca ptr, align 8
  store ptr %0, ptr %2, align 8, !tbaa !14
  %3 = load ptr, ptr %2, align 8, !tbaa !14
  %4 = getelementptr inbounds nuw %struct.PyASCIIObject, ptr %3, i32 0, i32 1
  %5 = load i64, ptr %4, align 8, !tbaa !78
  ret i64 %5
}

; Function Attrs: inlinehint nounwind uwtable
define internal ptr @_PyUnicode_DATA(ptr noundef %0) #4 {
  %2 = alloca ptr, align 8
  %3 = alloca ptr, align 8
  store ptr %0, ptr %3, align 8, !tbaa !14
  %4 = load ptr, ptr %3, align 8, !tbaa !14
  %5 = call i32 @PyUnicode_IS_COMPACT(ptr noundef %4)
  %6 = icmp ne i32 %5, 0
  br i1 %6, label %7, label %10

7:                                                ; preds = %1
  %8 = load ptr, ptr %3, align 8, !tbaa !14
  %9 = call ptr @_PyUnicode_COMPACT_DATA(ptr noundef %8)
  store ptr %9, ptr %2, align 8
  br label %13

10:                                               ; preds = %1
  %11 = load ptr, ptr %3, align 8, !tbaa !14
  %12 = call ptr @_PyUnicode_NONCOMPACT_DATA(ptr noundef %11)
  store ptr %12, ptr %2, align 8
  br label %13

13:                                               ; preds = %10, %7
  %14 = load ptr, ptr %2, align 8
  ret ptr %14
}

; Function Attrs: inlinehint nounwind uwtable
define internal i32 @PyUnicode_IS_ASCII(ptr noundef %0) #4 {
  %2 = alloca ptr, align 8
  store ptr %0, ptr %2, align 8, !tbaa !14
  %3 = load ptr, ptr %2, align 8, !tbaa !14
  %4 = getelementptr inbounds nuw %struct.PyASCIIObject, ptr %3, i32 0, i32 3
  %5 = getelementptr inbounds nuw %struct.anon.0, ptr %4, i32 0, i32 1
  %6 = load i16, ptr %5, align 2
  %7 = lshr i16 %6, 4
  %8 = and i16 %7, 1
  %9 = zext i16 %8 to i32
  ret i32 %9
}

; Function Attrs: inlinehint nounwind uwtable
define internal i32 @PyType_HasFeature(ptr noundef %0, i64 noundef %1) #4 {
  %3 = alloca ptr, align 8
  %4 = alloca i64, align 8
  %5 = alloca i64, align 8
  store ptr %0, ptr %3, align 8, !tbaa !16
  store i64 %1, ptr %4, align 8, !tbaa !32
  call void @llvm.lifetime.start.p0(i64 8, ptr %5) #9
  %6 = load ptr, ptr %3, align 8, !tbaa !16
  %7 = getelementptr inbounds nuw %struct._typeobject, ptr %6, i32 0, i32 19
  %8 = load i64, ptr %7, align 8, !tbaa !44
  store i64 %8, ptr %5, align 8, !tbaa !32
  %9 = load i64, ptr %5, align 8, !tbaa !32
  %10 = load i64, ptr %4, align 8, !tbaa !32
  %11 = and i64 %9, %10
  %12 = icmp ne i64 %11, 0
  %13 = zext i1 %12 to i32
  call void @llvm.lifetime.end.p0(i64 8, ptr %5) #9
  ret i32 %13
}

; Function Attrs: inlinehint nounwind uwtable
define internal ptr @_Py_TYPE(ptr noundef %0) #4 {
  %2 = alloca ptr, align 8
  store ptr %0, ptr %2, align 8, !tbaa !14
  %3 = load ptr, ptr %2, align 8, !tbaa !14
  %4 = getelementptr inbounds nuw %struct._object, ptr %3, i32 0, i32 1
  %5 = load ptr, ptr %4, align 8, !tbaa !29
  ret ptr %5
}

; Function Attrs: nounwind uwtable
define internal ptr @_hashlib_compare_digest_impl(ptr noundef %0, ptr noundef %1, ptr noundef %2) #0 {
  %4 = alloca ptr, align 8
  %5 = alloca ptr, align 8
  %6 = alloca ptr, align 8
  %7 = alloca ptr, align 8
  %8 = alloca i32, align 4
  %9 = alloca i32, align 4
  %10 = alloca %struct.Py_buffer, align 8
  %11 = alloca %struct.Py_buffer, align 8
  store ptr %0, ptr %5, align 8, !tbaa !14
  store ptr %1, ptr %6, align 8, !tbaa !14
  store ptr %2, ptr %7, align 8, !tbaa !14
  call void @llvm.lifetime.start.p0(i64 4, ptr %8) #9
  %12 = load ptr, ptr %6, align 8, !tbaa !14
  %13 = call ptr @_Py_TYPE(ptr noundef %12)
  %14 = call i32 @PyType_HasFeature(ptr noundef %13, i64 noundef 268435456)
  %15 = icmp ne i32 %14, 0
  br i1 %15, label %16, label %41

16:                                               ; preds = %3
  %17 = load ptr, ptr %7, align 8, !tbaa !14
  %18 = call ptr @_Py_TYPE(ptr noundef %17)
  %19 = call i32 @PyType_HasFeature(ptr noundef %18, i64 noundef 268435456)
  %20 = icmp ne i32 %19, 0
  br i1 %20, label %21, label %41

21:                                               ; preds = %16
  %22 = load ptr, ptr %6, align 8, !tbaa !14
  %23 = call i32 @PyUnicode_IS_ASCII(ptr noundef %22)
  %24 = icmp ne i32 %23, 0
  br i1 %24, label %25, label %29

25:                                               ; preds = %21
  %26 = load ptr, ptr %7, align 8, !tbaa !14
  %27 = call i32 @PyUnicode_IS_ASCII(ptr noundef %26)
  %28 = icmp ne i32 %27, 0
  br i1 %28, label %31, label %29

29:                                               ; preds = %25, %21
  %30 = load ptr, ptr @PyExc_TypeError, align 8, !tbaa !14
  call void @PyErr_SetString(ptr noundef %30, ptr noundef @.str.113)
  store ptr null, ptr %4, align 8
  store i32 1, ptr %9, align 4
  br label %99

31:                                               ; preds = %25
  %32 = load ptr, ptr %6, align 8, !tbaa !14
  %33 = call ptr @_PyUnicode_DATA(ptr noundef %32)
  %34 = load ptr, ptr %7, align 8, !tbaa !14
  %35 = call ptr @_PyUnicode_DATA(ptr noundef %34)
  %36 = load ptr, ptr %6, align 8, !tbaa !14
  %37 = call i64 @PyUnicode_GET_LENGTH(ptr noundef %36)
  %38 = load ptr, ptr %7, align 8, !tbaa !14
  %39 = call i64 @PyUnicode_GET_LENGTH(ptr noundef %38)
  %40 = call i32 @_tscmp(ptr noundef %33, ptr noundef %35, i64 noundef %37, i64 noundef %39)
  store i32 %40, ptr %8, align 4, !tbaa !19
  br label %95

41:                                               ; preds = %16, %3
  call void @llvm.lifetime.start.p0(i64 80, ptr %10) #9
  call void @llvm.lifetime.start.p0(i64 80, ptr %11) #9
  %42 = load ptr, ptr %6, align 8, !tbaa !14
  %43 = call i32 @PyObject_CheckBuffer(ptr noundef %42)
  %44 = icmp eq i32 %43, 0
  br i1 %44, label %45, label %60

45:                                               ; preds = %41
  %46 = load ptr, ptr %7, align 8, !tbaa !14
  %47 = call i32 @PyObject_CheckBuffer(ptr noundef %46)
  %48 = icmp eq i32 %47, 0
  br i1 %48, label %49, label %60

49:                                               ; preds = %45
  %50 = load ptr, ptr @PyExc_TypeError, align 8, !tbaa !14
  %51 = load ptr, ptr %6, align 8, !tbaa !14
  %52 = call ptr @_Py_TYPE(ptr noundef %51)
  %53 = getelementptr inbounds nuw %struct._typeobject, ptr %52, i32 0, i32 1
  %54 = load ptr, ptr %53, align 8, !tbaa !77
  %55 = load ptr, ptr %7, align 8, !tbaa !14
  %56 = call ptr @_Py_TYPE(ptr noundef %55)
  %57 = getelementptr inbounds nuw %struct._typeobject, ptr %56, i32 0, i32 1
  %58 = load ptr, ptr %57, align 8, !tbaa !77
  %59 = call ptr (ptr, ptr, ...) @PyErr_Format(ptr noundef %50, ptr noundef @.str.114, ptr noundef %54, ptr noundef %58)
  store ptr null, ptr %4, align 8
  store i32 1, ptr %9, align 4
  br label %92

60:                                               ; preds = %45, %41
  %61 = load ptr, ptr %6, align 8, !tbaa !14
  %62 = call i32 @PyObject_GetBuffer(ptr noundef %61, ptr noundef %10, i32 noundef 0)
  %63 = icmp eq i32 %62, -1
  br i1 %63, label %64, label %65

64:                                               ; preds = %60
  store ptr null, ptr %4, align 8
  store i32 1, ptr %9, align 4
  br label %92

65:                                               ; preds = %60
  %66 = getelementptr inbounds nuw %struct.Py_buffer, ptr %10, i32 0, i32 5
  %67 = load i32, ptr %66, align 4, !tbaa !34
  %68 = icmp sgt i32 %67, 1
  br i1 %68, label %69, label %71

69:                                               ; preds = %65
  %70 = load ptr, ptr @PyExc_BufferError, align 8, !tbaa !14
  call void @PyErr_SetString(ptr noundef %70, ptr noundef @.str.47)
  call void @PyBuffer_Release(ptr noundef %10)
  store ptr null, ptr %4, align 8
  store i32 1, ptr %9, align 4
  br label %92

71:                                               ; preds = %65
  %72 = load ptr, ptr %7, align 8, !tbaa !14
  %73 = call i32 @PyObject_GetBuffer(ptr noundef %72, ptr noundef %11, i32 noundef 0)
  %74 = icmp eq i32 %73, -1
  br i1 %74, label %75, label %76

75:                                               ; preds = %71
  call void @PyBuffer_Release(ptr noundef %10)
  store ptr null, ptr %4, align 8
  store i32 1, ptr %9, align 4
  br label %92

76:                                               ; preds = %71
  %77 = getelementptr inbounds nuw %struct.Py_buffer, ptr %11, i32 0, i32 5
  %78 = load i32, ptr %77, align 4, !tbaa !34
  %79 = icmp sgt i32 %78, 1
  br i1 %79, label %80, label %82

80:                                               ; preds = %76
  %81 = load ptr, ptr @PyExc_BufferError, align 8, !tbaa !14
  call void @PyErr_SetString(ptr noundef %81, ptr noundef @.str.47)
  call void @PyBuffer_Release(ptr noundef %10)
  call void @PyBuffer_Release(ptr noundef %11)
  store ptr null, ptr %4, align 8
  store i32 1, ptr %9, align 4
  br label %92

82:                                               ; preds = %76
  %83 = getelementptr inbounds nuw %struct.Py_buffer, ptr %10, i32 0, i32 0
  %84 = load ptr, ptr %83, align 8, !tbaa !43
  %85 = getelementptr inbounds nuw %struct.Py_buffer, ptr %11, i32 0, i32 0
  %86 = load ptr, ptr %85, align 8, !tbaa !43
  %87 = getelementptr inbounds nuw %struct.Py_buffer, ptr %10, i32 0, i32 2
  %88 = load i64, ptr %87, align 8, !tbaa !40
  %89 = getelementptr inbounds nuw %struct.Py_buffer, ptr %11, i32 0, i32 2
  %90 = load i64, ptr %89, align 8, !tbaa !40
  %91 = call i32 @_tscmp(ptr noundef %84, ptr noundef %86, i64 noundef %88, i64 noundef %90)
  store i32 %91, ptr %8, align 4, !tbaa !19
  call void @PyBuffer_Release(ptr noundef %10)
  call void @PyBuffer_Release(ptr noundef %11)
  store i32 0, ptr %9, align 4
  br label %92

92:                                               ; preds = %82, %80, %75, %69, %64, %49
  call void @llvm.lifetime.end.p0(i64 80, ptr %11) #9
  call void @llvm.lifetime.end.p0(i64 80, ptr %10) #9
  %93 = load i32, ptr %9, align 4
  switch i32 %93, label %99 [
    i32 0, label %94
  ]

94:                                               ; preds = %92
  br label %95

95:                                               ; preds = %94, %31
  %96 = load i32, ptr %8, align 4, !tbaa !19
  %97 = sext i32 %96 to i64
  %98 = call ptr @PyBool_FromLong(i64 noundef %97)
  store ptr %98, ptr %4, align 8
  store i32 1, ptr %9, align 4
  br label %99

99:                                               ; preds = %95, %92, %29
  call void @llvm.lifetime.end.p0(i64 4, ptr %8) #9
  %100 = load ptr, ptr %4, align 8
  ret ptr %100
}

; Function Attrs: nounwind uwtable
define internal ptr @_hashlib_compare_digest(ptr noundef %0, ptr noundef %1, i64 noundef %2) #0 {
  %4 = alloca ptr, align 8
  %5 = alloca ptr, align 8
  %6 = alloca i64, align 8
  %7 = alloca ptr, align 8
  %8 = alloca ptr, align 8
  %9 = alloca ptr, align 8
  store ptr %0, ptr %4, align 8, !tbaa !14
  store ptr %1, ptr %5, align 8, !tbaa !30
  store i64 %2, ptr %6, align 8, !tbaa !32
  call void @llvm.lifetime.start.p0(i64 8, ptr %7) #9
  store ptr null, ptr %7, align 8, !tbaa !14
  call void @llvm.lifetime.start.p0(i64 8, ptr %8) #9
  call void @llvm.lifetime.start.p0(i64 8, ptr %9) #9
  %10 = load i64, ptr %6, align 8, !tbaa !32
  %11 = icmp sle i64 2, %10
  br i1 %11, label %12, label %15

12:                                               ; preds = %3
  %13 = load i64, ptr %6, align 8, !tbaa !32
  %14 = icmp sle i64 %13, 2
  br i1 %14, label %20, label %15

15:                                               ; preds = %12, %3
  %16 = load i64, ptr %6, align 8, !tbaa !32
  %17 = call i32 @_PyArg_CheckPositional(ptr noundef @.str.61, i64 noundef %16, i64 noundef 2, i64 noundef 2)
  %18 = icmp ne i32 %17, 0
  br i1 %18, label %20, label %19

19:                                               ; preds = %15
  br label %31

20:                                               ; preds = %15, %12
  %21 = load ptr, ptr %5, align 8, !tbaa !30
  %22 = getelementptr ptr, ptr %21, i64 0
  %23 = load ptr, ptr %22, align 8, !tbaa !14
  store ptr %23, ptr %8, align 8, !tbaa !14
  %24 = load ptr, ptr %5, align 8, !tbaa !30
  %25 = getelementptr ptr, ptr %24, i64 1
  %26 = load ptr, ptr %25, align 8, !tbaa !14
  store ptr %26, ptr %9, align 8, !tbaa !14
  %27 = load ptr, ptr %4, align 8, !tbaa !14
  %28 = load ptr, ptr %8, align 8, !tbaa !14
  %29 = load ptr, ptr %9, align 8, !tbaa !14
  %30 = call ptr @_hashlib_compare_digest_impl(ptr noundef %27, ptr noundef %28, ptr noundef %29)
  store ptr %30, ptr %7, align 8, !tbaa !14
  br label %31

31:                                               ; preds = %20, %19
  %32 = load ptr, ptr %7, align 8, !tbaa !14
  call void @llvm.lifetime.end.p0(i64 8, ptr %9) #9
  call void @llvm.lifetime.end.p0(i64 8, ptr %8) #9
  call void @llvm.lifetime.end.p0(i64 8, ptr %7) #9
  ret ptr %32
}