; Function Attrs: nounwind uwtable
define internal ptr @_hashlib_compare_digest(ptr readnone captures(none) %0, ptr noundef readonly captures(none) %1, i64 noundef %2) #0 {
  %4 = alloca %struct.Py_buffer, align 8
  %5 = alloca %struct.Py_buffer, align 8
  %or.cond = icmp eq i64 %2, 2
  br i1 %or.cond, label %8, label %6

6:                                                ; preds = %3
  %7 = tail call i32 @_PyArg_CheckPositional(ptr noundef nonnull @.str.61, i64 noundef %2, i64 noundef 2, i64 noundef 2) #9
  %.not = icmp eq i32 %7, 0
  br i1 %.not, label %_hashlib_compare_digest_impl.exit, label %8

8:                                                ; preds = %3, %6
  %9 = load ptr, ptr %1, align 8, !tbaa !23
  %10 = getelementptr i8, ptr %1, i64 8
  %11 = load ptr, ptr %10, align 8, !tbaa !23
  %12 = getelementptr i8, ptr %9, i64 8
  %.val24.i = load ptr, ptr %12, align 8, !tbaa !22
  %13 = getelementptr i8, ptr %.val24.i, i64 168
  %.val26.i = load i64, ptr %13, align 8, !tbaa !28
  %14 = and i64 %.val26.i, 268435456
  %.not.i = icmp eq i64 %14, 0
  br i1 %.not.i, label %40, label %15

15:                                               ; preds = %8
  %16 = getelementptr i8, ptr %11, i64 8
  %.val23.i = load ptr, ptr %16, align 8, !tbaa !22
  %17 = getelementptr i8, ptr %.val23.i, i64 168
  %.val25.i = load i64, ptr %17, align 8, !tbaa !28
  %18 = and i64 %.val25.i, 268435456
  %.not19.i = icmp eq i64 %18, 0
  br i1 %.not19.i, label %40, label %19

19:                                               ; preds = %15
  %20 = getelementptr i8, ptr %9, i64 34
  %.val27.i = load i16, ptr %20, align 2
  %21 = and i16 %.val27.i, 16
  %.not20.i = icmp eq i16 %21, 0
  br i1 %.not20.i, label %25, label %22

22:                                               ; preds = %19
  %23 = getelementptr i8, ptr %11, i64 34
  %.val28.i = load i16, ptr %23, align 2
  %24 = and i16 %.val28.i, 16
  %.not21.i = icmp eq i16 %24, 0
  br i1 %.not21.i, label %25, label %27

25:                                               ; preds = %22, %19
  %26 = load ptr, ptr @PyExc_TypeError, align 8, !tbaa !23
  tail call void @PyErr_SetString(ptr noundef %26, ptr noundef nonnull @.str.113) #9
  br label %_hashlib_compare_digest_impl.exit

27:                                               ; preds = %22
  %28 = and i16 %.val27.i, 8
  %.not.i.i = icmp eq i16 %28, 0
  br i1 %.not.i.i, label %30, label %29

29:                                               ; preds = %27
  %.0.i.i.i = getelementptr i8, ptr %9, i64 40
  br label %_PyUnicode_DATA.exit.i

30:                                               ; preds = %27
  %31 = getelementptr i8, ptr %9, i64 56
  %.val4.i.i = load ptr, ptr %31, align 8, !tbaa !21
  br label %_PyUnicode_DATA.exit.i

_PyUnicode_DATA.exit.i:                           ; preds = %30, %29
  %.0.i.i = phi ptr [ %.0.i.i.i, %29 ], [ %.val4.i.i, %30 ]
  %32 = and i16 %.val28.i, 8
  %.not.i32.i = icmp eq i16 %32, 0
  br i1 %.not.i32.i, label %34, label %33

33:                                               ; preds = %_PyUnicode_DATA.exit.i
  %.0.i.i35.i = getelementptr i8, ptr %11, i64 40
  br label %_PyUnicode_DATA.exit38.i

34:                                               ; preds = %_PyUnicode_DATA.exit.i
  %35 = getelementptr i8, ptr %11, i64 56
  %.val4.i37.i = load ptr, ptr %35, align 8, !tbaa !21
  br label %_PyUnicode_DATA.exit38.i

_PyUnicode_DATA.exit38.i:                         ; preds = %34, %33
  %.0.i36.i = phi ptr [ %.0.i.i35.i, %33 ], [ %.val4.i37.i, %34 ]
  %36 = getelementptr i8, ptr %9, i64 16
  %.val29.i = load i64, ptr %36, align 8, !tbaa !55
  %37 = getelementptr i8, ptr %11, i64 16
  %.val30.i = load i64, ptr %37, align 8, !tbaa !55
  %.not.i39.i = icmp ne i64 %.val29.i, %.val30.i
  %spec.select.i.i = select i1 %.not.i39.i, ptr %.0.i36.i, ptr %.0.i.i
  %spec.select11.i.i = zext i1 %.not.i39.i to i32
  %38 = tail call i32 @CRYPTO_memcmp(ptr noundef %spec.select.i.i, ptr noundef %.0.i36.i, i64 noundef %.val30.i) #9
  %39 = or i32 %38, %spec.select11.i.i
  br label %82

40:                                               ; preds = %15, %8
  call void @llvm.lifetime.start.p0(i64 80, ptr nonnull %4) #9
  call void @llvm.lifetime.start.p0(i64 80, ptr nonnull %5) #9
  %41 = tail call i32 @PyObject_CheckBuffer(ptr noundef nonnull %9) #9
  %42 = icmp eq i32 %41, 0
  br i1 %42, label %43, label %54

43:                                               ; preds = %40
  %44 = tail call i32 @PyObject_CheckBuffer(ptr noundef %11) #9
  %45 = icmp eq i32 %44, 0
  br i1 %45, label %46, label %54

46:                                               ; preds = %43
  %47 = load ptr, ptr @PyExc_TypeError, align 8, !tbaa !23
  %.val22.i = load ptr, ptr %12, align 8, !tbaa !22
  %48 = getelementptr inbounds nuw i8, ptr %.val22.i, i64 24
  %49 = load ptr, ptr %48, align 8, !tbaa !58
  %50 = getelementptr i8, ptr %11, i64 8
  %.val.i = load ptr, ptr %50, align 8, !tbaa !22
  %51 = getelementptr inbounds nuw i8, ptr %.val.i, i64 24
  %52 = load ptr, ptr %51, align 8, !tbaa !58
  %53 = tail call ptr (ptr, ptr, ...) @PyErr_Format(ptr noundef %47, ptr noundef nonnull @.str.114, ptr noundef %49, ptr noundef %52) #9
  br label %.thread.i

54:                                               ; preds = %43, %40
  %55 = call i32 @PyObject_GetBuffer(ptr noundef nonnull %9, ptr noundef nonnull %4, i32 noundef 0) #9
  %56 = icmp eq i32 %55, -1
  br i1 %56, label %.thread.i, label %57

57:                                               ; preds = %54
  %58 = getelementptr inbounds nuw i8, ptr %4, i64 36
  %59 = load i32, ptr %58, align 4, !tbaa !36
  %60 = icmp sgt i32 %59, 1
  br i1 %60, label %61, label %63

61:                                               ; preds = %57
  %62 = load ptr, ptr @PyExc_BufferError, align 8, !tbaa !23
  call void @PyErr_SetString(ptr noundef %62, ptr noundef nonnull @.str.47) #9
  call void @PyBuffer_Release(ptr noundef nonnull %4) #9
  br label %.thread.i

63:                                               ; preds = %57
  %64 = call i32 @PyObject_GetBuffer(ptr noundef %11, ptr noundef nonnull %5, i32 noundef 0) #9
  %65 = icmp eq i32 %64, -1
  br i1 %65, label %66, label %67

66:                                               ; preds = %63
  call void @PyBuffer_Release(ptr noundef nonnull %4) #9
  br label %.thread.i

67:                                               ; preds = %63
  %68 = getelementptr inbounds nuw i8, ptr %5, i64 36
  %69 = load i32, ptr %68, align 4, !tbaa !36
  %70 = icmp sgt i32 %69, 1
  br i1 %70, label %71, label %73

71:                                               ; preds = %67
  %72 = load ptr, ptr @PyExc_BufferError, align 8, !tbaa !23
  call void @PyErr_SetString(ptr noundef %72, ptr noundef nonnull @.str.47) #9
  call void @PyBuffer_Release(ptr noundef nonnull %4) #9
  call void @PyBuffer_Release(ptr noundef nonnull %5) #9
  br label %.thread.i

.thread.i:                                        ; preds = %71, %66, %61, %54, %46
  call void @llvm.lifetime.end.p0(i64 80, ptr nonnull %5) #9
  call void @llvm.lifetime.end.p0(i64 80, ptr nonnull %4) #9
  br label %_hashlib_compare_digest_impl.exit

73:                                               ; preds = %67
  %74 = load ptr, ptr %4, align 8, !tbaa !39
  %75 = load ptr, ptr %5, align 8, !tbaa !39
  %76 = getelementptr inbounds nuw i8, ptr %4, i64 16
  %77 = load i64, ptr %76, align 8, !tbaa !40
  %78 = getelementptr inbounds nuw i8, ptr %5, i64 16
  %79 = load i64, ptr %78, align 8, !tbaa !40
  %.not.i40.i = icmp ne i64 %77, %79
  %spec.select.i41.i = select i1 %.not.i40.i, ptr %75, ptr %74
  %spec.select11.i42.i = zext i1 %.not.i40.i to i32
  %80 = call i32 @CRYPTO_memcmp(ptr noundef %spec.select.i41.i, ptr noundef %75, i64 noundef %79) #9
  %81 = or i32 %80, %spec.select11.i42.i
  call void @PyBuffer_Release(ptr noundef nonnull %4) #9
  call void @PyBuffer_Release(ptr noundef nonnull %5) #9
  call void @llvm.lifetime.end.p0(i64 80, ptr nonnull %5) #9
  call void @llvm.lifetime.end.p0(i64 80, ptr nonnull %4) #9
  br label %82

82:                                               ; preds = %73, %_PyUnicode_DATA.exit38.i
  %.016.in.in.i = phi i32 [ %39, %_PyUnicode_DATA.exit38.i ], [ %81, %73 ]
  %.016.in.i = icmp eq i32 %.016.in.in.i, 0
  %83 = zext i1 %.016.in.i to i64
  %84 = call ptr @PyBool_FromLong(i64 noundef %83) #9
  br label %_hashlib_compare_digest_impl.exit

_hashlib_compare_digest_impl.exit:                ; preds = %82, %.thread.i, %25, %6
  %.0 = phi ptr [ null, %6 ], [ %84, %82 ], [ null, %25 ], [ null, %.thread.i ]
  ret ptr %.0
}